target datalayout = "e-m:e-p270:32:32-p271:32:32-p272:64:64-i64:64-i128:128-f80:128-n8:16:32:64-S128"
target triple = "x86_64-pc-linux-gnu"

@hf_mip6_vsm_vid = internal global i32 0, align 4
@hf_mip6_vsm_subtype = internal global i32 0, align 4
@hf_mip6_vsm_data = internal global i32 0, align 4
@ett_mip6_opt_vsm = internal global i32 0, align 4
@mip6_vsm_dissector_table = internal global ptr null, align 8
@proto_mip6_option_vsm = internal global i32 0, align 4
@.str.749 = private unnamed_addr constant [10 x i8] c"<unknown>\00", align 1
@.str.755 = private unnamed_addr constant [5 x i8] c": %s\00", align 1

; Function Attrs: null_pointer_is_valid sspstrong uwtable
define internal i32 @dissect_mip6_opt_vsm(ptr noundef %0, ptr noundef %1, ptr noundef %2, ptr noundef %3) #0 {
  %5 = alloca ptr, align 8
  %6 = alloca ptr, align 8
  %7 = alloca ptr, align 8
  %8 = alloca ptr, align 8
  %9 = alloca ptr, align 8
  %10 = alloca ptr, align 8
  %11 = alloca i32, align 4
  %12 = alloca i32, align 4
  %13 = alloca ptr, align 8
  %14 = alloca i32, align 4
  store ptr %0, ptr %5, align 8
  store ptr %1, ptr %6, align 8
  store ptr %2, ptr %7, align 8
  store ptr %3, ptr %8, align 8
  call void @llvm.lifetime.start.p0(i64 8, ptr %9) #6
  call void @llvm.lifetime.start.p0(i64 8, ptr %10) #6
  call void @llvm.lifetime.start.p0(i64 4, ptr %11) #6
  %15 = load ptr, ptr %5, align 8
  %16 = call i32 @tvb_reported_length(ptr noundef %15)
  %17 = sub i32 %16, 2
  store i32 %17, ptr %11, align 4
  call void @llvm.lifetime.start.p0(i64 4, ptr %12) #6
  store i32 2, ptr %12, align 4
  call void @llvm.lifetime.start.p0(i64 8, ptr %13) #6
  call void @llvm.lifetime.start.p0(i64 4, ptr %14) #6
  %18 = load ptr, ptr %7, align 8
  %19 = load ptr, ptr %6, align 8
  %20 = load ptr, ptr %5, align 8
  %21 = load i32, ptr @proto_mip6_option_vsm, align 4
  %22 = load i32, ptr @ett_mip6_opt_vsm, align 4
  %23 = load i32, ptr %11, align 4
  %24 = call ptr @mip6_var_option_header(ptr noundef %18, ptr noundef %19, ptr noundef %20, i32 noundef %21, i32 noundef %22, ptr noundef %10, i32 noundef %23, i32 noundef 2)
  store ptr %24, ptr %9, align 8
  %25 = load ptr, ptr %9, align 8
  %26 = load i32, ptr @hf_mip6_vsm_vid, align 4
  %27 = load ptr, ptr %5, align 8
  %28 = load i32, ptr %12, align 4
  %29 = call ptr @proto_tree_add_item_ret_uint(ptr noundef %25, i32 noundef %26, ptr noundef %27, i32 noundef %28, i32 noundef 4, i32 noundef 0, ptr noundef %14)
  %30 = load ptr, ptr %10, align 8
  %31 = load i32, ptr %14, align 4
  %32 = call ptr @enterprises_lookup(i32 noundef %31, ptr noundef @.str.749)
  call void (ptr, ptr, ...) @proto_item_append_text(ptr noundef %30, ptr noundef @.str.755, ptr noundef %32)
  %33 = load i32, ptr %12, align 4
  %34 = add i32 %33, 4
  store i32 %34, ptr %12, align 4
  %35 = load ptr, ptr %5, align 8
  %36 = load i32, ptr %12, align 4
  %37 = call ptr @tvb_new_subset_remaining(ptr noundef %35, i32 noundef %36)
  store ptr %37, ptr %13, align 8
  %38 = load ptr, ptr @mip6_vsm_dissector_table, align 8
  %39 = load i32, ptr %14, align 4
  %40 = load ptr, ptr %13, align 8
  %41 = load ptr, ptr %6, align 8
  %42 = load ptr, ptr %9, align 8
  %43 = call i32 @dissector_try_uint(ptr noundef %38, i32 noundef %39, ptr noundef %40, ptr noundef %41, ptr noundef %42)
  %44 = icmp ne i32 %43, 0
  br i1 %44, label %67, label %45

45:                                               ; preds = %4
  %46 = load ptr, ptr %9, align 8
  %47 = load i32, ptr @hf_mip6_vsm_subtype, align 4
  %48 = load ptr, ptr %5, align 8
  %49 = load i32, ptr %12, align 4
  %50 = call ptr @proto_tree_add_item(ptr noundef %46, i32 noundef %47, ptr noundef %48, i32 noundef %49, i32 noundef 1, i32 noundef 0)
  %51 = load i32, ptr %12, align 4
  %52 = add i32 %51, 1
  store i32 %52, ptr %12, align 4
  %53 = load i32, ptr %11, align 4
  %54 = load i32, ptr %12, align 4
  %55 = sub i32 %53, %54
  %56 = icmp sgt i32 %55, 0
  br i1 %56, label %57, label %66

57:                                               ; preds = %45
  %58 = load ptr, ptr %9, align 8
  %59 = load i32, ptr @hf_mip6_vsm_data, align 4
  %60 = load ptr, ptr %5, align 8
  %61 = load i32, ptr %12, align 4
  %62 = load i32, ptr %11, align 4
  %63 = load i32, ptr %12, align 4
  %64 = sub i32 %62, %63
  %65 = call ptr @proto_tree_add_item(ptr noundef %58, i32 noundef %59, ptr noundef %60, i32 noundef %61, i32 noundef %64, i32 noundef 0)
  br label %66

66:                                               ; preds = %57, %45
  br label %67

67:                                               ; preds = %66, %4
  %68 = load ptr, ptr %5, align 8
  %69 = call i32 @tvb_captured_length(ptr noundef %68)
  call void @llvm.lifetime.end.p0(i64 4, ptr %14) #6
  call void @llvm.lifetime.end.p0(i64 8, ptr %13) #6
  call void @llvm.lifetime.end.p0(i64 4, ptr %12) #6
  call void @llvm.lifetime.end.p0(i64 4, ptr %11) #6
  call void @llvm.lifetime.end.p0(i64 8, ptr %10) #6
  call void @llvm.lifetime.end.p0(i64 8, ptr %9) #6
  ret i32 %69
}