; Function Attrs: null_pointer_is_valid sspstrong uwtable
define internal i32 @dissect_mip6_opt_vsm(ptr noundef %0, ptr noundef %1, ptr noundef %2, ptr readnone captures(none) %3) #0 {
  %5 = alloca ptr, align 8
  %6 = alloca i32, align 4
  call void @llvm.lifetime.start.p0(i64 8, ptr nonnull %5) #5
  %7 = tail call i32 @tvb_reported_length(ptr noundef %0)
  %8 = add i32 %7, -2
  call void @llvm.lifetime.start.p0(i64 4, ptr nonnull %6) #5
  %9 = load i32, ptr @proto_mip6_option_vsm, align 4
  %10 = load i32, ptr @ett_mip6_opt_vsm, align 4
  %11 = call fastcc ptr @mip6_var_option_header(ptr noundef %2, ptr noundef %1, ptr noundef %0, i32 noundef %9, i32 noundef %10, ptr noundef nonnull %5, i32 noundef %8, i32 noundef 2)
  %12 = load i32, ptr @hf_mip6_vsm_vid, align 4
  %13 = call ptr @proto_tree_add_item_ret_uint(ptr noundef %11, i32 noundef %12, ptr noundef %0, i32 noundef 2, i32 noundef 4, i32 noundef 0, ptr noundef nonnull %6)
  %14 = load ptr, ptr %5, align 8
  %15 = load i32, ptr %6, align 4
  %16 = call ptr @enterprises_lookup(i32 noundef %15, ptr noundef nonnull @.str.749)
  call void (ptr, ptr, ...) @proto_item_append_text(ptr noundef %14, ptr noundef nonnull @.str.755, ptr noundef %16)
  %17 = call ptr @tvb_new_subset_remaining(ptr noundef %0, i32 noundef 6)
  %18 = load ptr, ptr @mip6_vsm_dissector_table, align 8
  %19 = load i32, ptr %6, align 4
  %20 = call i32 @dissector_try_uint(ptr noundef %18, i32 noundef %19, ptr noundef %17, ptr noundef %1, ptr noundef %11)
  %.not = icmp eq i32 %20, 0
  br i1 %.not, label %21, label %29

21:                                               ; preds = %4
  %22 = load i32, ptr @hf_mip6_vsm_subtype, align 4
  %23 = call ptr @proto_tree_add_item(ptr noundef %11, i32 noundef %22, ptr noundef %0, i32 noundef 6, i32 noundef 1, i32 noundef 0)
  %24 = add i32 %7, -9
  %25 = icmp sgt i32 %24, 0
  br i1 %25, label %26, label %29

26:                                               ; preds = %21
  %27 = load i32, ptr @hf_mip6_vsm_data, align 4
  %28 = call ptr @proto_tree_add_item(ptr noundef %11, i32 noundef %27, ptr noundef %0, i32 noundef 7, i32 noundef %24, i32 noundef 0)
  br label %29

29:                                               ; preds = %21, %26, %4
  %30 = call i32 @tvb_captured_length(ptr noundef %0)
  call void @llvm.lifetime.end.p0(i64 4, ptr nonnull %6) #5
  call void @llvm.lifetime.end.p0(i64 8, ptr nonnull %5) #5
  ret i32 %30
}